(dp0
I0
(icore.engine
StatCollection
p1
(dp2
S'status'
p3
I200
sS'latency'
p4
F2.941533088684082
sS'avg_connect_latency'
p5
F1.6081577028547014
sS'count'
p6
I7
sS'total_connect_latency'
p7
F11.25710391998291
sS'avg_latency'
p8
F1.6082914897373743
sS'reason'
p9
S'OK'
p10
sS'agent_start_time'
p11
S'15:29:48'
p12
sS'error_count'
p13
I0
sS'total_latency'
p14
F11.258040428161621
sS'total_bytes'
p15
I1414
sbsI1
(icore.engine
StatCollection
p16
(dp17
g3
I200
sg4
F0.8022480010986328
sg5
F0.9698731899261475
sg6
I11
sg7
F10.668605089187622
sg8
F0.9700114293531938
sg9
S'OK'
p18
sg11
S'15:29:48'
p19
sg13
I0
sg14
F10.670125722885132
sg15
I2222
sbsI2
(icore.engine
StatCollection
p20
(dp21
g3
I200
sg4
F0.7849898338317871
sg5
F1.516016926084246
sg6
I7
sg7
F10.612118482589722
sg8
F1.5161664145333427
sg9
S'OK'
p22
sg11
S'15:29:48'
p23
sg13
I0
sg14
F10.613164901733398
sg15
I1414
sbsI3
(icore.engine
StatCollection
p24
(dp25
g3
I200
sg4
F0.7770841121673584
sg5
F1.482833010809762
sg6
I7
sg7
F10.379831075668335
sg8
F1.4830386979239327
sg9
S'OK'
p26
sg11
S'15:29:48'
p27
sg13
I0
sg14
F10.38127088546753
sg15
I1414
sbs.