(dp0
I0
(icore.engine
StatCollection
p1
(dp2
S'status'
p3
I200
sS'latency'
p4
F3.220142126083374
sS'avg_connect_latency'
p5
F1.836667469569615
sS'count'
p6
I7
sS'total_connect_latency'
p7
F12.856672286987305
sS'avg_latency'
p8
F1.8367554460253035
sS'reason'
p9
S'OK'
p10
sS'agent_start_time'
p11
S'06:20:00'
p12
sS'error_count'
p13
I0
sS'total_latency'
p14
F12.857288122177124
sS'total_bytes'
p15
I8890
sbsI1
(icore.engine
StatCollection
p16
(dp17
g3
I200
sg4
F5.869107961654663
sg5
F2.2848506450653074
sg6
I5
sg7
F11.424253225326538
sg8
F2.284951591491699
sg9
S'OK'
p18
sg11
S'06:20:00'
p19
sg13
I0
sg14
F11.424757957458496
sg15
I6350
sbsI2
(icore.engine
StatCollection
p20
(dp21
g3
I200
sg4
F3.269531011581421
sg5
F1.606601506471634
sg6
I8
sg7
F12.852812051773071
sg8
F1.606670618057251
sg9
S'OK'
p22
sg11
S'06:20:00'
p23
sg13
I0
sg14
F12.853364944458008
sg15
I10160
sbsI3
(icore.engine
StatCollection
p24
(dp25
g3
I200
sg4
F10.634855031967163
sg5
F4.0573097467422485
sg6
I4
sg7
F16.229238986968994
sg8
F4.0574129819869995
sg9
S'OK'
p26
sg11
S'06:20:00'
p27
sg13
I0
sg14
F16.229651927947998
sg15
I5080
sbs.