(dp0
I0
(icore.engine
StatCollection
p1
(dp2
S'status'
p3
I200
sS'latency'
p4
F38.727195024490356
sS'avg_connect_latency'
p5
F1.3356782436370849
sS'count'
p6
I5
sS'total_connect_latency'
p7
F6.678391218185425
sS'avg_latency'
p8
F8.805155277252197
sS'reason'
p9
S'OK'
p10
sS'agent_start_time'
p11
S'06:23:15'
p12
sS'error_count'
p13
I0
sS'total_latency'
p14
F44.025776386260986
sS'total_bytes'
p15
I23154
sbsI1
(icore.engine
StatCollection
p16
(dp17
g3
I200
sg4
F1.0805962085723877
sg5
F1.8017856121063232
sg6
I5
sg7
F9.008928060531616
sg8
F2.1497240543365477
sg9
S'OK'
p18
sg11
S'06:23:15'
p19
sg13
I0
sg14
F10.74862027168274
sg15
I23154
sbsI2
(icore.engine
StatCollection
p20
(dp21
g3
I200
sg4
F3.262205123901367
sg5
F1.5146001974741619
sg6
I6
sg7
F9.08760118484497
sg8
F2.0356725056966147
sg9
S'OK'
p22
sg11
S'06:23:15'
p23
sg13
I0
sg14
F12.214035034179688
sg15
I28684
sbsI3
(icore.engine
StatCollection
p24
(dp25
g3
I200
sg4
F4.263953924179077
sg5
F1.2053299248218536
sg6
I8
sg7
F9.642639398574829
sg8
F1.7063701152801514
sg9
S'OK'
p26
sg11
S'06:23:15'
p27
sg13
I0
sg14
F13.650960922241211
sg15
I37496
sbs.